; Function Attrs: mustprogress nounwind uwtable
define hidden void @_ZN19CounterOverflowStub9emit_codeEP13LIR_Assembler(ptr noundef nonnull align 8 dereferenceable(112) %0, ptr noundef %1) unnamed_addr #0 align 2 {
  %3 = alloca %class.AddressLiteral, align 8
  %4 = alloca %class.RuntimeAddress, align 8
  %5 = load ptr, ptr %1, align 8
  %6 = getelementptr inbounds i8, ptr %0, i64 8
  tail call void @_ZN17AbstractAssembler4bindER5Label(ptr noundef nonnull align 8 dereferenceable(24) %5, ptr noundef nonnull align 8 dereferenceable(33) %6) #6
  %7 = getelementptr inbounds i8, ptr %0, i64 104
  %8 = load i64, ptr %7, align 8
  %9 = inttoptr i64 %8 to ptr
  %10 = load ptr, ptr %9, align 8
  %11 = load ptr, ptr %10, align 8
  %12 = tail call noundef ptr %11(ptr noundef nonnull align 8 dereferenceable(8) %9) #6
  %13 = getelementptr inbounds i8, ptr %12, i64 16
  %14 = load i64, ptr %13, align 8
  %15 = inttoptr i64 %14 to ptr
  tail call void @_ZN13LIR_Assembler15store_parameterEP8Metadatai(ptr noundef nonnull align 8 dereferenceable(96) %1, ptr noundef %15, i32 noundef 1) #6
  %16 = getelementptr inbounds i8, ptr %0, i64 96
  %17 = load i32, ptr %16, align 8
  tail call void @_ZN13LIR_Assembler15store_parameterEii(ptr noundef nonnull align 8 dereferenceable(96) %1, i32 noundef %17, i32 noundef 0) #6
  %18 = load ptr, ptr %1, align 8
  %19 = tail call noundef ptr @_ZN8Runtime18blob_forENS_6StubIDE(i32 noundef 31) #6
  %20 = getelementptr inbounds i8, ptr %19, i64 36
  %21 = load i32, ptr %20, align 4
  %22 = sext i32 %21 to i64
  %23 = getelementptr inbounds i8, ptr %19, i64 %22
  call void @_ZN14AddressLiteralC2EPhN9relocInfo9relocTypeE(ptr noundef nonnull align 8 dereferenceable(56) %4, ptr noundef %23, i32 noundef 6) #6
  %24 = load ptr, ptr %4, align 8
  %25 = getelementptr inbounds i8, ptr %24, i64 16
  %26 = load ptr, ptr %25, align 8
  call void %26(ptr noundef nonnull align 8 dereferenceable(20) %4, ptr noundef nonnull align 8 dereferenceable(40) %3) #6
  %27 = getelementptr inbounds i8, ptr %3, i64 40
  %28 = getelementptr inbounds i8, ptr %4, i64 40
  call void @llvm.memcpy.p0.p0.i64(ptr noundef nonnull align 8 dereferenceable(16) %27, ptr noundef nonnull align 8 dereferenceable(16) %28, i64 16, i1 false)
  call void @_ZN14MacroAssembler4callE14AddressLiteral8Register(ptr noundef nonnull align 8 dereferenceable(40) %18, ptr noundef nonnull %3, i32 0) #6
  %29 = getelementptr inbounds i8, ptr %0, i64 88
  %30 = load ptr, ptr %29, align 8
  %31 = call noundef i32 @_ZNK13LIR_Assembler11code_offsetEv(ptr noundef nonnull align 8 dereferenceable(96) %1) #6
  call void @_ZN13LIR_Assembler13add_call_infoEiP12CodeEmitInfo(ptr noundef nonnull align 8 dereferenceable(96) %1, i32 noundef %31, ptr noundef %30) #6
  %32 = load ptr, ptr %29, align 8
  call void @_ZN13LIR_Assembler14verify_oop_mapEP12CodeEmitInfo(ptr noundef nonnull align 8 dereferenceable(96) %1, ptr noundef %32) #6
  %33 = load ptr, ptr %1, align 8
  %34 = getelementptr inbounds i8, ptr %0, i64 48
  call void @_ZN9Assembler3jmpER5Labelb(ptr noundef nonnull align 8 dereferenceable(40) %33, ptr noundef nonnull align 8 dereferenceable(33) %34, i1 noundef zeroext true) #6
  ret void
}